target datalayout = "e-m:e-p270:32:32-p271:32:32-p272:64:64-i64:64-i128:128-f80:128-n8:16:32:64-S128"
target triple = "x86_64-pc-linux-gnu"

%struct._object = type { %union.anon, ptr }
%union.anon = type { i64 }
%struct.Py_complex = type { double, double }
%struct.PyComplexObject = type { %struct._object, %struct.Py_complex }

@.str.4 = private unnamed_addr constant [1 x i8] zeroinitializer, align 1
@.str.5 = private unnamed_addr constant [2 x i8] c"(\00", align 1
@.str.6 = private unnamed_addr constant [2 x i8] c")\00", align 1
@.str.7 = private unnamed_addr constant [10 x i8] c"%s%s%sj%s\00", align 1

; Function Attrs: nounwind uwtable
define internal ptr @complex_repr(ptr noundef %0) #0 {
  %2 = alloca ptr, align 8
  %3 = alloca i32, align 4
  %4 = alloca i8, align 1
  %5 = alloca ptr, align 8
  %6 = alloca ptr, align 8
  %7 = alloca ptr, align 8
  %8 = alloca ptr, align 8
  %9 = alloca ptr, align 8
  %10 = alloca ptr, align 8
  %11 = alloca ptr, align 8
  store ptr %0, ptr %2, align 8, !tbaa !16
  call void @llvm.lifetime.start.p0(i64 4, ptr %3) #9
  store i32 0, ptr %3, align 4, !tbaa !12
  call void @llvm.lifetime.start.p0(i64 1, ptr %4) #9
  store i8 114, ptr %4, align 1, !tbaa !32
  call void @llvm.lifetime.start.p0(i64 8, ptr %5) #9
  store ptr null, ptr %5, align 8, !tbaa !16
  call void @llvm.lifetime.start.p0(i64 8, ptr %6) #9
  %12 = load ptr, ptr %2, align 8, !tbaa !16
  store ptr %12, ptr %6, align 8, !tbaa !14
  call void @llvm.lifetime.start.p0(i64 8, ptr %7) #9
  store ptr null, ptr %7, align 8, !tbaa !34
  call void @llvm.lifetime.start.p0(i64 8, ptr %8) #9
  store ptr null, ptr %8, align 8, !tbaa !34
  call void @llvm.lifetime.start.p0(i64 8, ptr %9) #9
  store ptr null, ptr %9, align 8, !tbaa !34
  call void @llvm.lifetime.start.p0(i64 8, ptr %10) #9
  store ptr @.str.4, ptr %10, align 8, !tbaa !34
  call void @llvm.lifetime.start.p0(i64 8, ptr %11) #9
  store ptr @.str.4, ptr %11, align 8, !tbaa !34
  %13 = load ptr, ptr %6, align 8, !tbaa !14
  %14 = getelementptr inbounds nuw %struct.PyComplexObject, ptr %13, i32 0, i32 1
  %15 = getelementptr inbounds nuw %struct.Py_complex, ptr %14, i32 0, i32 0
  %16 = load double, ptr %15, align 8, !tbaa !20
  %17 = fcmp oeq double %16, 0.000000e+00
  br i1 %17, label %18, label %38

18:                                               ; preds = %1
  %19 = load ptr, ptr %6, align 8, !tbaa !14
  %20 = getelementptr inbounds nuw %struct.PyComplexObject, ptr %19, i32 0, i32 1
  %21 = getelementptr inbounds nuw %struct.Py_complex, ptr %20, i32 0, i32 0
  %22 = load double, ptr %21, align 8, !tbaa !20
  %23 = call double @llvm.copysign.f64(double 1.000000e+00, double %22)
  %24 = fcmp oeq double %23, 1.000000e+00
  br i1 %24, label %25, label %38

25:                                               ; preds = %18
  store ptr @.str.4, ptr %9, align 8, !tbaa !34
  %26 = load ptr, ptr %6, align 8, !tbaa !14
  %27 = getelementptr inbounds nuw %struct.PyComplexObject, ptr %26, i32 0, i32 1
  %28 = getelementptr inbounds nuw %struct.Py_complex, ptr %27, i32 0, i32 1
  %29 = load double, ptr %28, align 8, !tbaa !33
  %30 = load i8, ptr %4, align 1, !tbaa !32
  %31 = load i32, ptr %3, align 4, !tbaa !12
  %32 = call ptr @PyOS_double_to_string(double noundef %29, i8 noundef signext %30, i32 noundef %31, i32 noundef 0, ptr noundef null)
  store ptr %32, ptr %8, align 8, !tbaa !34
  %33 = load ptr, ptr %8, align 8, !tbaa !34
  %34 = icmp ne ptr %33, null
  br i1 %34, label %37, label %35

35:                                               ; preds = %25
  %36 = call ptr @PyErr_NoMemory()
  br label %70

37:                                               ; preds = %25
  br label %64

38:                                               ; preds = %18, %1
  %39 = load ptr, ptr %6, align 8, !tbaa !14
  %40 = getelementptr inbounds nuw %struct.PyComplexObject, ptr %39, i32 0, i32 1
  %41 = getelementptr inbounds nuw %struct.Py_complex, ptr %40, i32 0, i32 0
  %42 = load double, ptr %41, align 8, !tbaa !20
  %43 = load i8, ptr %4, align 1, !tbaa !32
  %44 = load i32, ptr %3, align 4, !tbaa !12
  %45 = call ptr @PyOS_double_to_string(double noundef %42, i8 noundef signext %43, i32 noundef %44, i32 noundef 0, ptr noundef null)
  store ptr %45, ptr %7, align 8, !tbaa !34
  %46 = load ptr, ptr %7, align 8, !tbaa !34
  %47 = icmp ne ptr %46, null
  br i1 %47, label %50, label %48

48:                                               ; preds = %38
  %49 = call ptr @PyErr_NoMemory()
  br label %70

50:                                               ; preds = %38
  %51 = load ptr, ptr %7, align 8, !tbaa !34
  store ptr %51, ptr %9, align 8, !tbaa !34
  %52 = load ptr, ptr %6, align 8, !tbaa !14
  %53 = getelementptr inbounds nuw %struct.PyComplexObject, ptr %52, i32 0, i32 1
  %54 = getelementptr inbounds nuw %struct.Py_complex, ptr %53, i32 0, i32 1
  %55 = load double, ptr %54, align 8, !tbaa !33
  %56 = load i8, ptr %4, align 1, !tbaa !32
  %57 = load i32, ptr %3, align 4, !tbaa !12
  %58 = call ptr @PyOS_double_to_string(double noundef %55, i8 noundef signext %56, i32 noundef %57, i32 noundef 1, ptr noundef null)
  store ptr %58, ptr %8, align 8, !tbaa !34
  %59 = load ptr, ptr %8, align 8, !tbaa !34
  %60 = icmp ne ptr %59, null
  br i1 %60, label %63, label %61

61:                                               ; preds = %50
  %62 = call ptr @PyErr_NoMemory()
  br label %70

63:                                               ; preds = %50
  store ptr @.str.5, ptr %10, align 8, !tbaa !34
  store ptr @.str.6, ptr %11, align 8, !tbaa !34
  br label %64

64:                                               ; preds = %63, %37
  %65 = load ptr, ptr %10, align 8, !tbaa !34
  %66 = load ptr, ptr %9, align 8, !tbaa !34
  %67 = load ptr, ptr %8, align 8, !tbaa !34
  %68 = load ptr, ptr %11, align 8, !tbaa !34
  %69 = call ptr (ptr, ...) @PyUnicode_FromFormat(ptr noundef @.str.7, ptr noundef %65, ptr noundef %66, ptr noundef %67, ptr noundef %68)
  store ptr %69, ptr %5, align 8, !tbaa !16
  br label %70

70:                                               ; preds = %64, %61, %48, %35
  %71 = load ptr, ptr %8, align 8, !tbaa !34
  call void @PyMem_Free(ptr noundef %71)
  %72 = load ptr, ptr %7, align 8, !tbaa !34
  call void @PyMem_Free(ptr noundef %72)
  %73 = load ptr, ptr %5, align 8, !tbaa !16
  call void @llvm.lifetime.end.p0(i64 8, ptr %11) #9
  call void @llvm.lifetime.end.p0(i64 8, ptr %10) #9
  call void @llvm.lifetime.end.p0(i64 8, ptr %9) #9
  call void @llvm.lifetime.end.p0(i64 8, ptr %8) #9
  call void @llvm.lifetime.end.p0(i64 8, ptr %7) #9
  call void @llvm.lifetime.end.p0(i64 8, ptr %6) #9
  call void @llvm.lifetime.end.p0(i64 8, ptr %5) #9
  call void @llvm.lifetime.end.p0(i64 1, ptr %4) #9
  call void @llvm.lifetime.end.p0(i64 4, ptr %3) #9
  ret ptr %73
}