; Function Attrs: nounwind uwtable
define internal ptr @complex_repr(ptr noundef readonly captures(none) %0) #9 {
  %2 = getelementptr inbounds nuw i8, ptr %0, i64 16
  %3 = load double, ptr %2, align 8, !tbaa !15
  %4 = fcmp oeq double %3, 0.000000e+00
  %5 = tail call double @llvm.copysign.f64(double 1.000000e+00, double %3)
  %6 = fcmp oeq double %5, 1.000000e+00
  %or.cond = and i1 %4, %6
  br i1 %or.cond, label %7, label %13

7:                                                ; preds = %1
  %8 = getelementptr inbounds nuw i8, ptr %0, i64 24
  %9 = load double, ptr %8, align 8, !tbaa !33
  %10 = tail call ptr @PyOS_double_to_string(double noundef %9, i8 noundef signext 114, i32 noundef 0, i32 noundef 0, ptr noundef null) #16
  %.not36 = icmp eq ptr %10, null
  br i1 %.not36, label %11, label %23

11:                                               ; preds = %7
  %12 = tail call ptr @PyErr_NoMemory() #16
  br label %25

13:                                               ; preds = %1
  %14 = tail call ptr @PyOS_double_to_string(double noundef %3, i8 noundef signext 114, i32 noundef 0, i32 noundef 0, ptr noundef null) #16
  %.not = icmp eq ptr %14, null
  br i1 %.not, label %15, label %17

15:                                               ; preds = %13
  %16 = tail call ptr @PyErr_NoMemory() #16
  br label %25

17:                                               ; preds = %13
  %18 = getelementptr inbounds nuw i8, ptr %0, i64 24
  %19 = load double, ptr %18, align 8, !tbaa !33
  %20 = tail call ptr @PyOS_double_to_string(double noundef %19, i8 noundef signext 114, i32 noundef 0, i32 noundef 1, ptr noundef null) #16
  %.not35 = icmp eq ptr %20, null
  br i1 %.not35, label %21, label %23

21:                                               ; preds = %17
  %22 = tail call ptr @PyErr_NoMemory() #16
  br label %25

23:                                               ; preds = %17, %7
  %.126 = phi ptr [ null, %7 ], [ %14, %17 ]
  %.1 = phi ptr [ %10, %7 ], [ %20, %17 ]
  %.023 = phi ptr [ @.str.4, %7 ], [ %14, %17 ]
  %.022 = phi ptr [ @.str.4, %7 ], [ @.str.5, %17 ]
  %.0 = phi ptr [ @.str.4, %7 ], [ @.str.6, %17 ]
  %24 = tail call ptr (ptr, ...) @PyUnicode_FromFormat(ptr noundef nonnull @.str.7, ptr noundef nonnull %.022, ptr noundef nonnull %.023, ptr noundef nonnull %.1, ptr noundef nonnull %.0) #16
  br label %25

25:                                               ; preds = %23, %21, %15, %11
  %.027 = phi ptr [ %24, %23 ], [ null, %11 ], [ null, %21 ], [ null, %15 ]
  %.025 = phi ptr [ %.126, %23 ], [ null, %11 ], [ %14, %21 ], [ null, %15 ]
  %.024 = phi ptr [ %.1, %23 ], [ null, %11 ], [ null, %21 ], [ null, %15 ]
  tail call void @PyMem_Free(ptr noundef %.024) #16
  tail call void @PyMem_Free(ptr noundef %.025) #16
  ret ptr %.027
}